; Function Attrs: mustprogress uwtable
define void @_ZNK32pxrInternal_v0_24__pxrReserved__13Usd_CrateData3GetERKNS_7SdfPathERKNS_7TfTokenE(ptr dead_on_unwind noalias writable sret(%"class.pxrInternal_v0_24__pxrReserved__::VtValue") align 8 initializes((8, 16)) %0, ptr noundef nonnull readonly align 8 captures(none) dereferenceable(32) %1, ptr noundef nonnull align 4 dereferenceable(8) %2, ptr noundef nonnull align 8 dereferenceable(8) %3) unnamed_addr #3 align 2 personality ptr @__gxx_personality_v0 {
  %5 = getelementptr inbounds nuw i8, ptr %1, i64 24
  %6 = load ptr, ptr %5, align 8
  %7 = getelementptr inbounds nuw i8, ptr %0, i64 8
  store ptr null, ptr %7, align 8, !alias.scope !27
  %8 = invoke noundef zeroext i1 @_ZNK32pxrInternal_v0_24__pxrReserved__17Usd_CrateDataImpl3HasERKNS_7SdfPathERKNS_7TfTokenEPNS_7VtValueEPNS_11SdfSpecTypeE(ptr noundef nonnull align 8 dereferenceable(96) %6, ptr noundef nonnull align 4 dereferenceable(8) %2, ptr noundef nonnull align 8 dereferenceable(8) %3, ptr noundef nonnull align 8 %0, ptr noundef null)
          to label %_ZNK32pxrInternal_v0_24__pxrReserved__17Usd_CrateDataImpl3GetERKNS_7SdfPathERKNS_7TfTokenE.exit unwind label %9

9:                                                ; preds = %4
  %10 = landingpad { ptr, i32 }
          cleanup
  tail call void @_ZN32pxrInternal_v0_24__pxrReserved__7VtValueD2Ev(ptr noundef nonnull align 8 dereferenceable(16) %0) #26
  resume { ptr, i32 } %10

_ZNK32pxrInternal_v0_24__pxrReserved__17Usd_CrateDataImpl3GetERKNS_7SdfPathERKNS_7TfTokenE.exit: ; preds = %4
  ret void
}